target datalayout = "e-m:e-p270:32:32-p271:32:32-p272:64:64-i64:64-i128:128-f80:128-n8:16:32:64-S128"
target triple = "x86_64-pc-linux-gnu"

%struct.AVFilterContext = type { ptr, ptr, ptr, ptr, ptr, i32, ptr, ptr, i32, ptr, ptr, i32, i32, ptr, ptr, ptr, ptr, i32, ptr, i32, i32 }
%struct.TMidEqualizerContext = type { ptr, i32, i32, float, [4 x i32], [4 x i32], i32, i32, i32, i32, i32, i32, i32, i32, [127 x float], [4 x [256 x ptr]], [4 x ptr], ptr, ptr, ptr }

; Function Attrs: nounwind uwtable
define internal void @free_histograms(ptr noundef %0, i32 noundef %1, i32 noundef %2) #1 {
  %4 = alloca ptr, align 8
  %5 = alloca i32, align 4
  %6 = alloca i32, align 4
  %7 = alloca ptr, align 8
  %8 = alloca i32, align 4
  store ptr %0, ptr %4, align 8, !tbaa !4
  store i32 %1, ptr %5, align 4, !tbaa !28
  store i32 %2, ptr %6, align 4, !tbaa !28
  call void @llvm.lifetime.start.p0(i64 8, ptr %7) #8
  %9 = load ptr, ptr %4, align 8, !tbaa !4
  %10 = getelementptr inbounds nuw %struct.AVFilterContext, ptr %9, i32 0, i32 9
  %11 = load ptr, ptr %10, align 8, !tbaa !9
  store ptr %11, ptr %7, align 8, !tbaa !22
  call void @llvm.lifetime.start.p0(i64 4, ptr %8) #8
  store i32 0, ptr %8, align 4, !tbaa !28
  br label %12

12:                                               ; preds = %26, %3
  %13 = load i32, ptr %8, align 4, !tbaa !28
  %14 = load i32, ptr %6, align 4, !tbaa !28
  %15 = icmp slt i32 %13, %14
  br i1 %15, label %17, label %16

16:                                               ; preds = %12
  call void @llvm.lifetime.end.p0(i64 4, ptr %8) #8
  br label %29

17:                                               ; preds = %12
  %18 = load ptr, ptr %7, align 8, !tbaa !22
  %19 = getelementptr inbounds nuw %struct.TMidEqualizerContext, ptr %18, i32 0, i32 15
  %20 = load i32, ptr %5, align 4, !tbaa !28
  %21 = sext i32 %20 to i64
  %22 = getelementptr inbounds [4 x [256 x ptr]], ptr %19, i64 0, i64 %21
  %23 = load i32, ptr %8, align 4, !tbaa !28
  %24 = sext i32 %23 to i64
  %25 = getelementptr inbounds [256 x ptr], ptr %22, i64 0, i64 %24
  call void @av_freep(ptr noundef %25)
  br label %26

26:                                               ; preds = %17
  %27 = load i32, ptr %8, align 4, !tbaa !28
  %28 = add nsw i32 %27, 1
  store i32 %28, ptr %8, align 4, !tbaa !28
  br label %12, !llvm.loop !110

29:                                               ; preds = %16
  %30 = load ptr, ptr %7, align 8, !tbaa !22
  %31 = getelementptr inbounds nuw %struct.TMidEqualizerContext, ptr %30, i32 0, i32 16
  %32 = load i32, ptr %5, align 4, !tbaa !28
  %33 = sext i32 %32 to i64
  %34 = getelementptr inbounds [4 x ptr], ptr %31, i64 0, i64 %33
  call void @av_freep(ptr noundef %34)
  call void @llvm.lifetime.end.p0(i64 8, ptr %7) #8
  ret void
}