; Function Attrs: nounwind uwtable
define internal fastcc void @free_histograms(ptr %.72.val, i32 noundef range(i32 0, 4) %0, i32 noundef %1) unnamed_addr #1 {
  %3 = icmp sgt i32 %1, 0
  br i1 %3, label %.lr.ph, label %.._crit_edge_crit_edge

.._crit_edge_crit_edge:                           ; preds = %2
  %.pre = zext nneg i32 %0 to i64
  br label %._crit_edge

.lr.ph:                                           ; preds = %2
  %4 = getelementptr inbounds nuw i8, ptr %.72.val, i64 592
  %5 = zext nneg i32 %0 to i64
  %wide.trip.count = zext nneg i32 %1 to i64
  br label %8

._crit_edge:                                      ; preds = %8, %.._crit_edge_crit_edge
  %.pre-phi = phi i64 [ %.pre, %.._crit_edge_crit_edge ], [ %5, %8 ]
  %6 = getelementptr inbounds nuw i8, ptr %.72.val, i64 8784
  %7 = getelementptr inbounds nuw [4 x ptr], ptr %6, i64 0, i64 %.pre-phi
  tail call void @av_freep(ptr noundef nonnull %7) #8
  ret void

8:                                                ; preds = %.lr.ph, %8
  %indvars.iv = phi i64 [ 0, %.lr.ph ], [ %indvars.iv.next, %8 ]
  %9 = getelementptr inbounds nuw [4 x [256 x ptr]], ptr %4, i64 0, i64 %5, i64 %indvars.iv
  tail call void @av_freep(ptr noundef nonnull %9) #8
  %indvars.iv.next = add nuw nsw i64 %indvars.iv, 1
  %exitcond.not = icmp eq i64 %indvars.iv.next, %wide.trip.count
  br i1 %exitcond.not, label %._crit_edge, label %8, !llvm.loop !100
}